; Function Attrs: nounwind uwtable
define ptr @l_Lean_Meta_DiscrTree_reduceDT(ptr noundef %0, i8 noundef zeroext %1, ptr noundef %2, ptr noundef %3, ptr noundef %4, ptr noundef %5, ptr noundef %6) local_unnamed_addr #2 {
  %8 = icmp eq i8 %1, 0
  br i1 %8, label %9, label %11

9:                                                ; preds = %7
  %10 = tail call ptr @l_Lean_Meta_DiscrTree_reduce(ptr noundef %0, ptr noundef %2, ptr noundef %3, ptr noundef %4, ptr noundef %5, ptr noundef %6)
  br label %13

11:                                               ; preds = %7
  %12 = tail call ptr @l___private_Lean_Meta_DiscrTree_0__Lean_Meta_DiscrTree_reduceUntilBadKey(ptr noundef %0, ptr noundef %2, ptr noundef %3, ptr noundef %4, ptr noundef %5, ptr noundef %6)
  br label %13

13:                                               ; preds = %11, %9
  %.0 = phi ptr [ %10, %9 ], [ %12, %11 ]
  ret ptr %.0
}